ARM GAS  C:\Users\kroko\AppData\Local\Temp\ccTSeZIZ.s 			page 1


   1              		.cpu cortex-m4
   2              		.arch armv7e-m
   3              		.fpu fpv4-sp-d16
   4              		.eabi_attribute 27, 1
   5              		.eabi_attribute 28, 1
   6              		.eabi_attribute 20, 1
   7              		.eabi_attribute 21, 1
   8              		.eabi_attribute 23, 3
   9              		.eabi_attribute 24, 1
  10              		.eabi_attribute 25, 1
  11              		.eabi_attribute 26, 1
  12              		.eabi_attribute 30, 1
  13              		.eabi_attribute 34, 1
  14              		.eabi_attribute 18, 4
  15              		.file	"usbd_storage_if.c"
  16              		.text
  17              	.Ltext0:
  18              		.cfi_sections	.debug_frame
  19              		.file 1 "USB_DEVICE/App/usbd_storage_if.c"
  20              		.section	.text.STORAGE_Init_FS,"ax",%progbits
  21              		.align	1
  22              		.syntax unified
  23              		.thumb
  24              		.thumb_func
  26              	STORAGE_Init_FS:
  27              	.LVL0:
  28              	.LFB243:
   1:USB_DEVICE/App/usbd_storage_if.c **** /* USER CODE BEGIN Header */
   2:USB_DEVICE/App/usbd_storage_if.c **** /**
   3:USB_DEVICE/App/usbd_storage_if.c ****   ******************************************************************************
   4:USB_DEVICE/App/usbd_storage_if.c ****   * @file           : usbd_storage_if.c
   5:USB_DEVICE/App/usbd_storage_if.c ****   * @version        : v1.0_Cube
   6:USB_DEVICE/App/usbd_storage_if.c ****   * @brief          : Memory management layer.
   7:USB_DEVICE/App/usbd_storage_if.c ****   ******************************************************************************
   8:USB_DEVICE/App/usbd_storage_if.c ****   * @attention
   9:USB_DEVICE/App/usbd_storage_if.c ****   *
  10:USB_DEVICE/App/usbd_storage_if.c ****   * Copyright (c) 2026 STMicroelectronics.
  11:USB_DEVICE/App/usbd_storage_if.c ****   * All rights reserved.
  12:USB_DEVICE/App/usbd_storage_if.c ****   *
  13:USB_DEVICE/App/usbd_storage_if.c ****   * This software is licensed under terms that can be found in the LICENSE file
  14:USB_DEVICE/App/usbd_storage_if.c ****   * in the root directory of this software component.
  15:USB_DEVICE/App/usbd_storage_if.c ****   * If no LICENSE file comes with this software, it is provided AS-IS.
  16:USB_DEVICE/App/usbd_storage_if.c ****   *
  17:USB_DEVICE/App/usbd_storage_if.c ****   ******************************************************************************
  18:USB_DEVICE/App/usbd_storage_if.c ****   */
  19:USB_DEVICE/App/usbd_storage_if.c **** /* USER CODE END Header */
  20:USB_DEVICE/App/usbd_storage_if.c **** 
  21:USB_DEVICE/App/usbd_storage_if.c **** /* Includes ------------------------------------------------------------------*/
  22:USB_DEVICE/App/usbd_storage_if.c **** #include "usbd_storage_if.h"
  23:USB_DEVICE/App/usbd_storage_if.c **** 
  24:USB_DEVICE/App/usbd_storage_if.c **** /* USER CODE BEGIN INCLUDE */
  25:USB_DEVICE/App/usbd_storage_if.c **** #include "25flash.h"
  26:USB_DEVICE/App/usbd_storage_if.c **** /* USER CODE END INCLUDE */
  27:USB_DEVICE/App/usbd_storage_if.c **** 
  28:USB_DEVICE/App/usbd_storage_if.c **** /* Private typedef -----------------------------------------------------------*/
  29:USB_DEVICE/App/usbd_storage_if.c **** /* Private define ------------------------------------------------------------*/
  30:USB_DEVICE/App/usbd_storage_if.c **** /* Private macro -------------------------------------------------------------*/
ARM GAS  C:\Users\kroko\AppData\Local\Temp\ccTSeZIZ.s 			page 2


  31:USB_DEVICE/App/usbd_storage_if.c **** 
  32:USB_DEVICE/App/usbd_storage_if.c **** /* USER CODE BEGIN PV */
  33:USB_DEVICE/App/usbd_storage_if.c **** /* Private variables ---------------------------------------------------------*/
  34:USB_DEVICE/App/usbd_storage_if.c **** 
  35:USB_DEVICE/App/usbd_storage_if.c **** /* USER CODE END PV */
  36:USB_DEVICE/App/usbd_storage_if.c **** 
  37:USB_DEVICE/App/usbd_storage_if.c **** /** @addtogroup STM32_USB_OTG_DEVICE_LIBRARY
  38:USB_DEVICE/App/usbd_storage_if.c ****   * @brief Usb device.
  39:USB_DEVICE/App/usbd_storage_if.c ****   * @{
  40:USB_DEVICE/App/usbd_storage_if.c ****   */
  41:USB_DEVICE/App/usbd_storage_if.c **** 
  42:USB_DEVICE/App/usbd_storage_if.c **** /** @defgroup USBD_STORAGE
  43:USB_DEVICE/App/usbd_storage_if.c ****   * @brief Usb mass storage device module
  44:USB_DEVICE/App/usbd_storage_if.c ****   * @{
  45:USB_DEVICE/App/usbd_storage_if.c ****   */
  46:USB_DEVICE/App/usbd_storage_if.c **** 
  47:USB_DEVICE/App/usbd_storage_if.c **** /** @defgroup USBD_STORAGE_Private_TypesDefinitions
  48:USB_DEVICE/App/usbd_storage_if.c ****   * @brief Private types.
  49:USB_DEVICE/App/usbd_storage_if.c ****   * @{
  50:USB_DEVICE/App/usbd_storage_if.c ****   */
  51:USB_DEVICE/App/usbd_storage_if.c **** 
  52:USB_DEVICE/App/usbd_storage_if.c **** /* USER CODE BEGIN PRIVATE_TYPES */
  53:USB_DEVICE/App/usbd_storage_if.c **** 
  54:USB_DEVICE/App/usbd_storage_if.c **** /* USER CODE END PRIVATE_TYPES */
  55:USB_DEVICE/App/usbd_storage_if.c **** 
  56:USB_DEVICE/App/usbd_storage_if.c **** /**
  57:USB_DEVICE/App/usbd_storage_if.c ****   * @}
  58:USB_DEVICE/App/usbd_storage_if.c ****   */
  59:USB_DEVICE/App/usbd_storage_if.c **** 
  60:USB_DEVICE/App/usbd_storage_if.c **** /** @defgroup USBD_STORAGE_Private_Defines
  61:USB_DEVICE/App/usbd_storage_if.c ****   * @brief Private defines.
  62:USB_DEVICE/App/usbd_storage_if.c ****   * @{
  63:USB_DEVICE/App/usbd_storage_if.c ****   */
  64:USB_DEVICE/App/usbd_storage_if.c **** 
  65:USB_DEVICE/App/usbd_storage_if.c **** #define STORAGE_LUN_NBR                  1
  66:USB_DEVICE/App/usbd_storage_if.c **** #define STORAGE_BLK_NBR                  0x10000
  67:USB_DEVICE/App/usbd_storage_if.c **** #define STORAGE_BLK_SIZ                  0x200
  68:USB_DEVICE/App/usbd_storage_if.c **** 
  69:USB_DEVICE/App/usbd_storage_if.c **** /* USER CODE BEGIN PRIVATE_DEFINES */
  70:USB_DEVICE/App/usbd_storage_if.c **** 
  71:USB_DEVICE/App/usbd_storage_if.c **** /* USER CODE END PRIVATE_DEFINES */
  72:USB_DEVICE/App/usbd_storage_if.c **** 
  73:USB_DEVICE/App/usbd_storage_if.c **** /**
  74:USB_DEVICE/App/usbd_storage_if.c ****   * @}
  75:USB_DEVICE/App/usbd_storage_if.c ****   */
  76:USB_DEVICE/App/usbd_storage_if.c **** 
  77:USB_DEVICE/App/usbd_storage_if.c **** /** @defgroup USBD_STORAGE_Private_Macros
  78:USB_DEVICE/App/usbd_storage_if.c ****   * @brief Private macros.
  79:USB_DEVICE/App/usbd_storage_if.c ****   * @{
  80:USB_DEVICE/App/usbd_storage_if.c ****   */
  81:USB_DEVICE/App/usbd_storage_if.c **** 
  82:USB_DEVICE/App/usbd_storage_if.c **** /* USER CODE BEGIN PRIVATE_MACRO */
  83:USB_DEVICE/App/usbd_storage_if.c **** 
  84:USB_DEVICE/App/usbd_storage_if.c **** /* USER CODE END PRIVATE_MACRO */
  85:USB_DEVICE/App/usbd_storage_if.c **** 
  86:USB_DEVICE/App/usbd_storage_if.c **** /**
  87:USB_DEVICE/App/usbd_storage_if.c ****   * @}
ARM GAS  C:\Users\kroko\AppData\Local\Temp\ccTSeZIZ.s 			page 3


  88:USB_DEVICE/App/usbd_storage_if.c ****   */
  89:USB_DEVICE/App/usbd_storage_if.c **** 
  90:USB_DEVICE/App/usbd_storage_if.c **** /** @defgroup USBD_STORAGE_Private_Variables
  91:USB_DEVICE/App/usbd_storage_if.c ****   * @brief Private variables.
  92:USB_DEVICE/App/usbd_storage_if.c ****   * @{
  93:USB_DEVICE/App/usbd_storage_if.c ****   */
  94:USB_DEVICE/App/usbd_storage_if.c **** 
  95:USB_DEVICE/App/usbd_storage_if.c **** /* USER CODE BEGIN INQUIRY_DATA_FS */
  96:USB_DEVICE/App/usbd_storage_if.c **** /** USB Mass storage Standard Inquiry Data. */
  97:USB_DEVICE/App/usbd_storage_if.c **** const int8_t STORAGE_Inquirydata_FS[] = {/* 36 */
  98:USB_DEVICE/App/usbd_storage_if.c **** 
  99:USB_DEVICE/App/usbd_storage_if.c ****   /* LUN 0 */
 100:USB_DEVICE/App/usbd_storage_if.c ****   0x00,
 101:USB_DEVICE/App/usbd_storage_if.c ****   0x80,
 102:USB_DEVICE/App/usbd_storage_if.c ****   0x02,
 103:USB_DEVICE/App/usbd_storage_if.c ****   0x02,
 104:USB_DEVICE/App/usbd_storage_if.c ****   (STANDARD_INQUIRY_DATA_LEN - 5),
 105:USB_DEVICE/App/usbd_storage_if.c ****   0x00,
 106:USB_DEVICE/App/usbd_storage_if.c ****   0x00,
 107:USB_DEVICE/App/usbd_storage_if.c ****   0x00,
 108:USB_DEVICE/App/usbd_storage_if.c ****   'S', 'T', 'M', ' ', ' ', ' ', ' ', ' ', /* Manufacturer : 8 bytes */
 109:USB_DEVICE/App/usbd_storage_if.c ****   'P', 'r', 'o', 'd', 'u', 'c', 't', ' ', /* Product      : 16 Bytes */
 110:USB_DEVICE/App/usbd_storage_if.c ****   ' ', ' ', ' ', ' ', ' ', ' ', ' ', ' ',
 111:USB_DEVICE/App/usbd_storage_if.c ****   '0', '.', '0' ,'1'                      /* Version      : 4 Bytes */
 112:USB_DEVICE/App/usbd_storage_if.c **** };
 113:USB_DEVICE/App/usbd_storage_if.c **** /* USER CODE END INQUIRY_DATA_FS */
 114:USB_DEVICE/App/usbd_storage_if.c **** 
 115:USB_DEVICE/App/usbd_storage_if.c **** /* USER CODE BEGIN PRIVATE_VARIABLES */
 116:USB_DEVICE/App/usbd_storage_if.c **** 
 117:USB_DEVICE/App/usbd_storage_if.c **** /* USER CODE END PRIVATE_VARIABLES */
 118:USB_DEVICE/App/usbd_storage_if.c **** 
 119:USB_DEVICE/App/usbd_storage_if.c **** /**
 120:USB_DEVICE/App/usbd_storage_if.c ****   * @}
 121:USB_DEVICE/App/usbd_storage_if.c ****   */
 122:USB_DEVICE/App/usbd_storage_if.c **** 
 123:USB_DEVICE/App/usbd_storage_if.c **** /** @defgroup USBD_STORAGE_Exported_Variables
 124:USB_DEVICE/App/usbd_storage_if.c ****   * @brief Public variables.
 125:USB_DEVICE/App/usbd_storage_if.c ****   * @{
 126:USB_DEVICE/App/usbd_storage_if.c ****   */
 127:USB_DEVICE/App/usbd_storage_if.c **** 
 128:USB_DEVICE/App/usbd_storage_if.c **** extern USBD_HandleTypeDef hUsbDeviceFS;
 129:USB_DEVICE/App/usbd_storage_if.c **** 
 130:USB_DEVICE/App/usbd_storage_if.c **** /* USER CODE BEGIN EXPORTED_VARIABLES */
 131:USB_DEVICE/App/usbd_storage_if.c **** 
 132:USB_DEVICE/App/usbd_storage_if.c **** /* USER CODE END EXPORTED_VARIABLES */
 133:USB_DEVICE/App/usbd_storage_if.c **** 
 134:USB_DEVICE/App/usbd_storage_if.c **** /**
 135:USB_DEVICE/App/usbd_storage_if.c ****   * @}
 136:USB_DEVICE/App/usbd_storage_if.c ****   */
 137:USB_DEVICE/App/usbd_storage_if.c **** 
 138:USB_DEVICE/App/usbd_storage_if.c **** /** @defgroup USBD_STORAGE_Private_FunctionPrototypes
 139:USB_DEVICE/App/usbd_storage_if.c ****   * @brief Private functions declaration.
 140:USB_DEVICE/App/usbd_storage_if.c ****   * @{
 141:USB_DEVICE/App/usbd_storage_if.c ****   */
 142:USB_DEVICE/App/usbd_storage_if.c **** 
 143:USB_DEVICE/App/usbd_storage_if.c **** static int8_t STORAGE_Init_FS(uint8_t lun);
 144:USB_DEVICE/App/usbd_storage_if.c **** static int8_t STORAGE_GetCapacity_FS(uint8_t lun, uint32_t *block_num, uint16_t *block_size);
ARM GAS  C:\Users\kroko\AppData\Local\Temp\ccTSeZIZ.s 			page 4


 145:USB_DEVICE/App/usbd_storage_if.c **** static int8_t STORAGE_IsReady_FS(uint8_t lun);
 146:USB_DEVICE/App/usbd_storage_if.c **** static int8_t STORAGE_IsWriteProtected_FS(uint8_t lun);
 147:USB_DEVICE/App/usbd_storage_if.c **** static int8_t STORAGE_Read_FS(uint8_t lun, uint8_t *buf, uint32_t blk_addr, uint16_t blk_len);
 148:USB_DEVICE/App/usbd_storage_if.c **** static int8_t STORAGE_Write_FS(uint8_t lun, uint8_t *buf, uint32_t blk_addr, uint16_t blk_len);
 149:USB_DEVICE/App/usbd_storage_if.c **** static int8_t STORAGE_GetMaxLun_FS(void);
 150:USB_DEVICE/App/usbd_storage_if.c **** 
 151:USB_DEVICE/App/usbd_storage_if.c **** /* USER CODE BEGIN PRIVATE_FUNCTIONS_DECLARATION */
 152:USB_DEVICE/App/usbd_storage_if.c **** 
 153:USB_DEVICE/App/usbd_storage_if.c **** /* USER CODE END PRIVATE_FUNCTIONS_DECLARATION */
 154:USB_DEVICE/App/usbd_storage_if.c **** 
 155:USB_DEVICE/App/usbd_storage_if.c **** /**
 156:USB_DEVICE/App/usbd_storage_if.c ****   * @}
 157:USB_DEVICE/App/usbd_storage_if.c ****   */
 158:USB_DEVICE/App/usbd_storage_if.c **** 
 159:USB_DEVICE/App/usbd_storage_if.c **** USBD_StorageTypeDef USBD_Storage_Interface_fops_FS =
 160:USB_DEVICE/App/usbd_storage_if.c **** {
 161:USB_DEVICE/App/usbd_storage_if.c ****   STORAGE_Init_FS,
 162:USB_DEVICE/App/usbd_storage_if.c ****   STORAGE_GetCapacity_FS,
 163:USB_DEVICE/App/usbd_storage_if.c ****   STORAGE_IsReady_FS,
 164:USB_DEVICE/App/usbd_storage_if.c ****   STORAGE_IsWriteProtected_FS,
 165:USB_DEVICE/App/usbd_storage_if.c ****   STORAGE_Read_FS,
 166:USB_DEVICE/App/usbd_storage_if.c ****   STORAGE_Write_FS,
 167:USB_DEVICE/App/usbd_storage_if.c ****   STORAGE_GetMaxLun_FS,
 168:USB_DEVICE/App/usbd_storage_if.c ****   (int8_t *)STORAGE_Inquirydata_FS
 169:USB_DEVICE/App/usbd_storage_if.c **** };
 170:USB_DEVICE/App/usbd_storage_if.c **** 
 171:USB_DEVICE/App/usbd_storage_if.c **** /* Private functions ---------------------------------------------------------*/
 172:USB_DEVICE/App/usbd_storage_if.c **** /**
 173:USB_DEVICE/App/usbd_storage_if.c ****   * @brief  Initializes the storage unit (medium) over USB FS IP
 174:USB_DEVICE/App/usbd_storage_if.c ****   * @param  lun: Logical unit number.
 175:USB_DEVICE/App/usbd_storage_if.c ****   * @retval USBD_OK if all operations are OK else USBD_FAIL
 176:USB_DEVICE/App/usbd_storage_if.c ****   */
 177:USB_DEVICE/App/usbd_storage_if.c **** int8_t STORAGE_Init_FS(uint8_t lun)
 178:USB_DEVICE/App/usbd_storage_if.c **** {
  29              		.loc 1 178 1 view -0
  30              		.cfi_startproc
  31              		@ args = 0, pretend = 0, frame = 0
  32              		@ frame_needed = 0, uses_anonymous_args = 0
  33              		@ link register save eliminated.
 179:USB_DEVICE/App/usbd_storage_if.c ****   /* USER CODE BEGIN 2 */
 180:USB_DEVICE/App/usbd_storage_if.c ****   UNUSED(lun);
  34              		.loc 1 180 3 view .LVU1
 181:USB_DEVICE/App/usbd_storage_if.c **** 
 182:USB_DEVICE/App/usbd_storage_if.c ****   return (USBD_OK);
  35              		.loc 1 182 3 view .LVU2
 183:USB_DEVICE/App/usbd_storage_if.c ****   /* USER CODE END 2 */
 184:USB_DEVICE/App/usbd_storage_if.c **** }
  36              		.loc 1 184 1 is_stmt 0 view .LVU3
  37 0000 0020     		movs	r0, #0
  38              	.LVL1:
  39              		.loc 1 184 1 view .LVU4
  40 0002 7047     		bx	lr
  41              		.cfi_endproc
  42              	.LFE243:
  44              		.section	.text.STORAGE_GetCapacity_FS,"ax",%progbits
  45              		.align	1
  46              		.syntax unified
ARM GAS  C:\Users\kroko\AppData\Local\Temp\ccTSeZIZ.s 			page 5


  47              		.thumb
  48              		.thumb_func
  50              	STORAGE_GetCapacity_FS:
  51              	.LVL2:
  52              	.LFB244:
 185:USB_DEVICE/App/usbd_storage_if.c **** 
 186:USB_DEVICE/App/usbd_storage_if.c **** /**
 187:USB_DEVICE/App/usbd_storage_if.c ****   * @brief  Returns the medium capacity.
 188:USB_DEVICE/App/usbd_storage_if.c ****   * @param  lun: Logical unit number.
 189:USB_DEVICE/App/usbd_storage_if.c ****   * @param  block_num: Number of total block number.
 190:USB_DEVICE/App/usbd_storage_if.c ****   * @param  block_size: Block size.
 191:USB_DEVICE/App/usbd_storage_if.c ****   * @retval USBD_OK if all operations are OK else USBD_FAIL
 192:USB_DEVICE/App/usbd_storage_if.c ****   */
 193:USB_DEVICE/App/usbd_storage_if.c **** int8_t STORAGE_GetCapacity_FS(uint8_t lun, uint32_t *block_num, uint16_t *block_size)
 194:USB_DEVICE/App/usbd_storage_if.c **** {
  53              		.loc 1 194 1 is_stmt 1 view -0
  54              		.cfi_startproc
  55              		@ args = 0, pretend = 0, frame = 0
  56              		@ frame_needed = 0, uses_anonymous_args = 0
  57              		@ link register save eliminated.
 195:USB_DEVICE/App/usbd_storage_if.c ****   /* USER CODE BEGIN 3 */
 196:USB_DEVICE/App/usbd_storage_if.c ****   UNUSED(lun);
  58              		.loc 1 196 3 view .LVU6
 197:USB_DEVICE/App/usbd_storage_if.c **** 
 198:USB_DEVICE/App/usbd_storage_if.c ****   *block_num  = STORAGE_BLK_NBR;
  59              		.loc 1 198 3 view .LVU7
  60              		.loc 1 198 15 is_stmt 0 view .LVU8
  61 0000 4FF48033 		mov	r3, #65536
  62 0004 0B60     		str	r3, [r1]
 199:USB_DEVICE/App/usbd_storage_if.c ****   *block_size = STORAGE_BLK_SIZ;
  63              		.loc 1 199 3 is_stmt 1 view .LVU9
  64              		.loc 1 199 15 is_stmt 0 view .LVU10
  65 0006 4FF40073 		mov	r3, #512
  66 000a 1380     		strh	r3, [r2]	@ movhi
 200:USB_DEVICE/App/usbd_storage_if.c ****   return (USBD_OK);
  67              		.loc 1 200 3 is_stmt 1 view .LVU11
 201:USB_DEVICE/App/usbd_storage_if.c ****   /* USER CODE END 3 */
 202:USB_DEVICE/App/usbd_storage_if.c **** }
  68              		.loc 1 202 1 is_stmt 0 view .LVU12
  69 000c 0020     		movs	r0, #0
  70              	.LVL3:
  71              		.loc 1 202 1 view .LVU13
  72 000e 7047     		bx	lr
  73              		.cfi_endproc
  74              	.LFE244:
  76              		.section	.text.STORAGE_IsReady_FS,"ax",%progbits
  77              		.align	1
  78              		.syntax unified
  79              		.thumb
  80              		.thumb_func
  82              	STORAGE_IsReady_FS:
  83              	.LVL4:
  84              	.LFB245:
 203:USB_DEVICE/App/usbd_storage_if.c **** 
 204:USB_DEVICE/App/usbd_storage_if.c **** /**
 205:USB_DEVICE/App/usbd_storage_if.c ****   * @brief   Checks whether the medium is ready.
 206:USB_DEVICE/App/usbd_storage_if.c ****   * @param  lun:  Logical unit number.
ARM GAS  C:\Users\kroko\AppData\Local\Temp\ccTSeZIZ.s 			page 6


 207:USB_DEVICE/App/usbd_storage_if.c ****   * @retval USBD_OK if all operations are OK else USBD_FAIL
 208:USB_DEVICE/App/usbd_storage_if.c ****   */
 209:USB_DEVICE/App/usbd_storage_if.c **** int8_t STORAGE_IsReady_FS(uint8_t lun)
 210:USB_DEVICE/App/usbd_storage_if.c **** {
  85              		.loc 1 210 1 is_stmt 1 view -0
  86              		.cfi_startproc
  87              		@ args = 0, pretend = 0, frame = 0
  88              		@ frame_needed = 0, uses_anonymous_args = 0
  89              		@ link register save eliminated.
 211:USB_DEVICE/App/usbd_storage_if.c ****   /* USER CODE BEGIN 4 */
 212:USB_DEVICE/App/usbd_storage_if.c ****   UNUSED(lun);
  90              		.loc 1 212 3 view .LVU15
 213:USB_DEVICE/App/usbd_storage_if.c **** 
 214:USB_DEVICE/App/usbd_storage_if.c ****   return (USBD_OK);
  91              		.loc 1 214 3 view .LVU16
 215:USB_DEVICE/App/usbd_storage_if.c ****   /* USER CODE END 4 */
 216:USB_DEVICE/App/usbd_storage_if.c **** }
  92              		.loc 1 216 1 is_stmt 0 view .LVU17
  93 0000 0020     		movs	r0, #0
  94              	.LVL5:
  95              		.loc 1 216 1 view .LVU18
  96 0002 7047     		bx	lr
  97              		.cfi_endproc
  98              	.LFE245:
 100              		.section	.text.STORAGE_IsWriteProtected_FS,"ax",%progbits
 101              		.align	1
 102              		.syntax unified
 103              		.thumb
 104              		.thumb_func
 106              	STORAGE_IsWriteProtected_FS:
 107              	.LVL6:
 108              	.LFB246:
 217:USB_DEVICE/App/usbd_storage_if.c **** 
 218:USB_DEVICE/App/usbd_storage_if.c **** /**
 219:USB_DEVICE/App/usbd_storage_if.c ****   * @brief  Checks whether the medium is write protected.
 220:USB_DEVICE/App/usbd_storage_if.c ****   * @param  lun: Logical unit number.
 221:USB_DEVICE/App/usbd_storage_if.c ****   * @retval USBD_OK if all operations are OK else USBD_FAIL
 222:USB_DEVICE/App/usbd_storage_if.c ****   */
 223:USB_DEVICE/App/usbd_storage_if.c **** int8_t STORAGE_IsWriteProtected_FS(uint8_t lun)
 224:USB_DEVICE/App/usbd_storage_if.c **** {
 109              		.loc 1 224 1 is_stmt 1 view -0
 110              		.cfi_startproc
 111              		@ args = 0, pretend = 0, frame = 0
 112              		@ frame_needed = 0, uses_anonymous_args = 0
 113              		@ link register save eliminated.
 225:USB_DEVICE/App/usbd_storage_if.c ****   /* USER CODE BEGIN 5 */
 226:USB_DEVICE/App/usbd_storage_if.c ****   UNUSED(lun);
 114              		.loc 1 226 3 view .LVU20
 227:USB_DEVICE/App/usbd_storage_if.c **** 
 228:USB_DEVICE/App/usbd_storage_if.c ****   return (USBD_OK);
 115              		.loc 1 228 3 view .LVU21
 229:USB_DEVICE/App/usbd_storage_if.c ****   /* USER CODE END 5 */
 230:USB_DEVICE/App/usbd_storage_if.c **** }
 116              		.loc 1 230 1 is_stmt 0 view .LVU22
 117 0000 0020     		movs	r0, #0
 118              	.LVL7:
 119              		.loc 1 230 1 view .LVU23
ARM GAS  C:\Users\kroko\AppData\Local\Temp\ccTSeZIZ.s 			page 7


 120 0002 7047     		bx	lr
 121              		.cfi_endproc
 122              	.LFE246:
 124              		.section	.text.STORAGE_GetMaxLun_FS,"ax",%progbits
 125              		.align	1
 126              		.syntax unified
 127              		.thumb
 128              		.thumb_func
 130              	STORAGE_GetMaxLun_FS:
 131              	.LFB249:
 231:USB_DEVICE/App/usbd_storage_if.c **** 
 232:USB_DEVICE/App/usbd_storage_if.c **** /**
 233:USB_DEVICE/App/usbd_storage_if.c ****   * @brief  Reads data from the medium.
 234:USB_DEVICE/App/usbd_storage_if.c ****   * @param  lun: Logical unit number.
 235:USB_DEVICE/App/usbd_storage_if.c ****   * @param  buf: data buffer.
 236:USB_DEVICE/App/usbd_storage_if.c ****   * @param  blk_addr: Logical block address.
 237:USB_DEVICE/App/usbd_storage_if.c ****   * @param  blk_len: Blocks number.
 238:USB_DEVICE/App/usbd_storage_if.c ****   * @retval USBD_OK if all operations are OK else USBD_FAIL
 239:USB_DEVICE/App/usbd_storage_if.c ****   */
 240:USB_DEVICE/App/usbd_storage_if.c **** int8_t STORAGE_Read_FS(uint8_t lun, uint8_t *buf, uint32_t blk_addr, uint16_t blk_len)
 241:USB_DEVICE/App/usbd_storage_if.c **** {
 242:USB_DEVICE/App/usbd_storage_if.c ****   /* USER CODE BEGIN 6 */
 243:USB_DEVICE/App/usbd_storage_if.c ****   UNUSED(lun);
 244:USB_DEVICE/App/usbd_storage_if.c ****   // UNUSED(buf);
 245:USB_DEVICE/App/usbd_storage_if.c ****   // UNUSED(blk_addr);
 246:USB_DEVICE/App/usbd_storage_if.c ****   UNUSED(blk_len);
 247:USB_DEVICE/App/usbd_storage_if.c **** 
 248:USB_DEVICE/App/usbd_storage_if.c ****   MX25FLASH_Read_Sector(blk_addr, buf);
 249:USB_DEVICE/App/usbd_storage_if.c **** 
 250:USB_DEVICE/App/usbd_storage_if.c ****   return (USBD_OK);
 251:USB_DEVICE/App/usbd_storage_if.c ****   /* USER CODE END 6 */
 252:USB_DEVICE/App/usbd_storage_if.c **** }
 253:USB_DEVICE/App/usbd_storage_if.c **** 
 254:USB_DEVICE/App/usbd_storage_if.c **** /**
 255:USB_DEVICE/App/usbd_storage_if.c ****   * @brief  Writes data into the medium.
 256:USB_DEVICE/App/usbd_storage_if.c ****   * @param  lun: Logical unit number.
 257:USB_DEVICE/App/usbd_storage_if.c ****   * @param  buf: data buffer.
 258:USB_DEVICE/App/usbd_storage_if.c ****   * @param  blk_addr: Logical block address.
 259:USB_DEVICE/App/usbd_storage_if.c ****   * @param  blk_len: Blocks number.
 260:USB_DEVICE/App/usbd_storage_if.c ****   * @retval USBD_OK if all operations are OK else USBD_FAIL
 261:USB_DEVICE/App/usbd_storage_if.c ****   */
 262:USB_DEVICE/App/usbd_storage_if.c **** int8_t STORAGE_Write_FS(uint8_t lun, uint8_t *buf, uint32_t blk_addr, uint16_t blk_len)
 263:USB_DEVICE/App/usbd_storage_if.c **** {
 264:USB_DEVICE/App/usbd_storage_if.c ****   /* USER CODE BEGIN 7 */
 265:USB_DEVICE/App/usbd_storage_if.c ****   UNUSED(lun);
 266:USB_DEVICE/App/usbd_storage_if.c ****   // UNUSED(buf);
 267:USB_DEVICE/App/usbd_storage_if.c ****   // UNUSED(blk_addr);
 268:USB_DEVICE/App/usbd_storage_if.c ****   UNUSED(blk_len);
 269:USB_DEVICE/App/usbd_storage_if.c **** 
 270:USB_DEVICE/App/usbd_storage_if.c ****   if (MX25FLASH_Sector_Erase(blk_addr) == 1) return (USBD_FAIL);
 271:USB_DEVICE/App/usbd_storage_if.c ****   if (MX25FLASH_Program_Sector(blk_addr, buf) == 1) return (USBD_FAIL);
 272:USB_DEVICE/App/usbd_storage_if.c **** 
 273:USB_DEVICE/App/usbd_storage_if.c ****   return (USBD_OK);
 274:USB_DEVICE/App/usbd_storage_if.c ****   /* USER CODE END 7 */
 275:USB_DEVICE/App/usbd_storage_if.c **** }
 276:USB_DEVICE/App/usbd_storage_if.c **** 
 277:USB_DEVICE/App/usbd_storage_if.c **** /**
ARM GAS  C:\Users\kroko\AppData\Local\Temp\ccTSeZIZ.s 			page 8


 278:USB_DEVICE/App/usbd_storage_if.c ****   * @brief  Returns the Max Supported LUNs.
 279:USB_DEVICE/App/usbd_storage_if.c ****   * @param  None
 280:USB_DEVICE/App/usbd_storage_if.c ****   * @retval Lun(s) number.
 281:USB_DEVICE/App/usbd_storage_if.c ****   */
 282:USB_DEVICE/App/usbd_storage_if.c **** int8_t STORAGE_GetMaxLun_FS(void)
 283:USB_DEVICE/App/usbd_storage_if.c **** {
 132              		.loc 1 283 1 is_stmt 1 view -0
 133              		.cfi_startproc
 134              		@ args = 0, pretend = 0, frame = 0
 135              		@ frame_needed = 0, uses_anonymous_args = 0
 136              		@ link register save eliminated.
 284:USB_DEVICE/App/usbd_storage_if.c ****   /* USER CODE BEGIN 8 */
 285:USB_DEVICE/App/usbd_storage_if.c ****   return (STORAGE_LUN_NBR - 1);
 137              		.loc 1 285 3 view .LVU25
 286:USB_DEVICE/App/usbd_storage_if.c ****   /* USER CODE END 8 */
 287:USB_DEVICE/App/usbd_storage_if.c **** }
 138              		.loc 1 287 1 is_stmt 0 view .LVU26
 139 0000 0020     		movs	r0, #0
 140 0002 7047     		bx	lr
 141              		.cfi_endproc
 142              	.LFE249:
 144              		.section	.text.STORAGE_Write_FS,"ax",%progbits
 145              		.align	1
 146              		.syntax unified
 147              		.thumb
 148              		.thumb_func
 150              	STORAGE_Write_FS:
 151              	.LVL8:
 152              	.LFB248:
 263:USB_DEVICE/App/usbd_storage_if.c ****   /* USER CODE BEGIN 7 */
 153              		.loc 1 263 1 is_stmt 1 view -0
 154              		.cfi_startproc
 155              		@ args = 0, pretend = 0, frame = 0
 156              		@ frame_needed = 0, uses_anonymous_args = 0
 263:USB_DEVICE/App/usbd_storage_if.c ****   /* USER CODE BEGIN 7 */
 157              		.loc 1 263 1 is_stmt 0 view .LVU28
 158 0000 38B5     		push	{r3, r4, r5, lr}
 159              		.cfi_def_cfa_offset 16
 160              		.cfi_offset 3, -16
 161              		.cfi_offset 4, -12
 162              		.cfi_offset 5, -8
 163              		.cfi_offset 14, -4
 164 0002 0D46     		mov	r5, r1
 165 0004 1446     		mov	r4, r2
 265:USB_DEVICE/App/usbd_storage_if.c ****   // UNUSED(buf);
 166              		.loc 1 265 3 is_stmt 1 view .LVU29
 268:USB_DEVICE/App/usbd_storage_if.c **** 
 167              		.loc 1 268 3 view .LVU30
 270:USB_DEVICE/App/usbd_storage_if.c ****   if (MX25FLASH_Program_Sector(blk_addr, buf) == 1) return (USBD_FAIL);
 168              		.loc 1 270 3 view .LVU31
 270:USB_DEVICE/App/usbd_storage_if.c ****   if (MX25FLASH_Program_Sector(blk_addr, buf) == 1) return (USBD_FAIL);
 169              		.loc 1 270 7 is_stmt 0 view .LVU32
 170 0006 1046     		mov	r0, r2
 171              	.LVL9:
 270:USB_DEVICE/App/usbd_storage_if.c ****   if (MX25FLASH_Program_Sector(blk_addr, buf) == 1) return (USBD_FAIL);
 172              		.loc 1 270 7 view .LVU33
 173 0008 FFF7FEFF 		bl	MX25FLASH_Sector_Erase
ARM GAS  C:\Users\kroko\AppData\Local\Temp\ccTSeZIZ.s 			page 9


 174              	.LVL10:
 270:USB_DEVICE/App/usbd_storage_if.c ****   if (MX25FLASH_Program_Sector(blk_addr, buf) == 1) return (USBD_FAIL);
 175              		.loc 1 270 6 discriminator 1 view .LVU34
 176 000c 0128     		cmp	r0, #1
 177 000e 07D0     		beq	.L8
 271:USB_DEVICE/App/usbd_storage_if.c **** 
 178              		.loc 1 271 3 is_stmt 1 view .LVU35
 271:USB_DEVICE/App/usbd_storage_if.c **** 
 179              		.loc 1 271 7 is_stmt 0 view .LVU36
 180 0010 2946     		mov	r1, r5
 181 0012 2046     		mov	r0, r4
 182 0014 FFF7FEFF 		bl	MX25FLASH_Program_Sector
 183              	.LVL11:
 271:USB_DEVICE/App/usbd_storage_if.c **** 
 184              		.loc 1 271 6 discriminator 1 view .LVU37
 185 0018 0128     		cmp	r0, #1
 186 001a 03D0     		beq	.L9
 273:USB_DEVICE/App/usbd_storage_if.c ****   /* USER CODE END 7 */
 187              		.loc 1 273 10 view .LVU38
 188 001c 0020     		movs	r0, #0
 189              	.L7:
 275:USB_DEVICE/App/usbd_storage_if.c **** 
 190              		.loc 1 275 1 view .LVU39
 191 001e 38BD     		pop	{r3, r4, r5, pc}
 192              	.LVL12:
 193              	.L8:
 270:USB_DEVICE/App/usbd_storage_if.c ****   if (MX25FLASH_Program_Sector(blk_addr, buf) == 1) return (USBD_FAIL);
 194              		.loc 1 270 53 discriminator 1 view .LVU40
 195 0020 0320     		movs	r0, #3
 196 0022 FCE7     		b	.L7
 197              	.L9:
 271:USB_DEVICE/App/usbd_storage_if.c **** 
 198              		.loc 1 271 60 discriminator 1 view .LVU41
 199 0024 0320     		movs	r0, #3
 200 0026 FAE7     		b	.L7
 201              		.cfi_endproc
 202              	.LFE248:
 204              		.section	.text.STORAGE_Read_FS,"ax",%progbits
 205              		.align	1
 206              		.syntax unified
 207              		.thumb
 208              		.thumb_func
 210              	STORAGE_Read_FS:
 211              	.LVL13:
 212              	.LFB247:
 241:USB_DEVICE/App/usbd_storage_if.c ****   /* USER CODE BEGIN 6 */
 213              		.loc 1 241 1 is_stmt 1 view -0
 214              		.cfi_startproc
 215              		@ args = 0, pretend = 0, frame = 0
 216              		@ frame_needed = 0, uses_anonymous_args = 0
 241:USB_DEVICE/App/usbd_storage_if.c ****   /* USER CODE BEGIN 6 */
 217              		.loc 1 241 1 is_stmt 0 view .LVU43
 218 0000 08B5     		push	{r3, lr}
 219              		.cfi_def_cfa_offset 8
 220              		.cfi_offset 3, -8
 221              		.cfi_offset 14, -4
 243:USB_DEVICE/App/usbd_storage_if.c ****   // UNUSED(buf);
ARM GAS  C:\Users\kroko\AppData\Local\Temp\ccTSeZIZ.s 			page 10


 222              		.loc 1 243 3 is_stmt 1 view .LVU44
 246:USB_DEVICE/App/usbd_storage_if.c **** 
 223              		.loc 1 246 3 view .LVU45
 248:USB_DEVICE/App/usbd_storage_if.c **** 
 224              		.loc 1 248 3 view .LVU46
 225 0002 1046     		mov	r0, r2
 226              	.LVL14:
 248:USB_DEVICE/App/usbd_storage_if.c **** 
 227              		.loc 1 248 3 is_stmt 0 view .LVU47
 228 0004 FFF7FEFF 		bl	MX25FLASH_Read_Sector
 229              	.LVL15:
 250:USB_DEVICE/App/usbd_storage_if.c ****   /* USER CODE END 6 */
 230              		.loc 1 250 3 is_stmt 1 view .LVU48
 252:USB_DEVICE/App/usbd_storage_if.c **** 
 231              		.loc 1 252 1 is_stmt 0 view .LVU49
 232 0008 0020     		movs	r0, #0
 233 000a 08BD     		pop	{r3, pc}
 234              		.cfi_endproc
 235              	.LFE247:
 237              		.global	USBD_Storage_Interface_fops_FS
 238              		.section	.data.USBD_Storage_Interface_fops_FS,"aw"
 239              		.align	2
 242              	USBD_Storage_Interface_fops_FS:
 243 0000 00000000 		.word	STORAGE_Init_FS
 244 0004 00000000 		.word	STORAGE_GetCapacity_FS
 245 0008 00000000 		.word	STORAGE_IsReady_FS
 246 000c 00000000 		.word	STORAGE_IsWriteProtected_FS
 247 0010 00000000 		.word	STORAGE_Read_FS
 248 0014 00000000 		.word	STORAGE_Write_FS
 249 0018 00000000 		.word	STORAGE_GetMaxLun_FS
 250 001c 00000000 		.word	STORAGE_Inquirydata_FS
 251              		.global	STORAGE_Inquirydata_FS
 252              		.section	.rodata.STORAGE_Inquirydata_FS,"a"
 253              		.align	2
 256              	STORAGE_Inquirydata_FS:
 257 0000 00800202 		.ascii	"\000\200\002\002\037\000\000\000STM     Product    "
 257      1F000000 
 257      53544D20 
 257      20202020 
 257      50726F64 
 258 001b 20202020 		.ascii	"     0.01"
 258      20302E30 
 258      31
 259              		.text
 260              	.Letext0:
 261              		.file 2 "C:/Program Files (x86)/Arm GNU Toolchain arm-none-eabi/14.2 rel1/arm-none-eabi/include/ma
 262              		.file 3 "C:/Program Files (x86)/Arm GNU Toolchain arm-none-eabi/14.2 rel1/arm-none-eabi/include/sy
 263              		.file 4 "Middlewares/ST/STM32_USB_Device_Library/Class/MSC/Inc/usbd_msc.h"
 264              		.file 5 "USB_DEVICE/App/usbd_storage_if.h"
 265              		.file 6 "Core/Inc/25flash.h"
 266              		.file 7 "Middlewares/ST/STM32_USB_Device_Library/Core/Inc/usbd_def.h"
ARM GAS  C:\Users\kroko\AppData\Local\Temp\ccTSeZIZ.s 			page 11


DEFINED SYMBOLS
                            *ABS*:00000000 usbd_storage_if.c
C:\Users\kroko\AppData\Local\Temp\ccTSeZIZ.s:21     .text.STORAGE_Init_FS:00000000 $t
C:\Users\kroko\AppData\Local\Temp\ccTSeZIZ.s:26     .text.STORAGE_Init_FS:00000000 STORAGE_Init_FS
C:\Users\kroko\AppData\Local\Temp\ccTSeZIZ.s:45     .text.STORAGE_GetCapacity_FS:00000000 $t
C:\Users\kroko\AppData\Local\Temp\ccTSeZIZ.s:50     .text.STORAGE_GetCapacity_FS:00000000 STORAGE_GetCapacity_FS
C:\Users\kroko\AppData\Local\Temp\ccTSeZIZ.s:77     .text.STORAGE_IsReady_FS:00000000 $t
C:\Users\kroko\AppData\Local\Temp\ccTSeZIZ.s:82     .text.STORAGE_IsReady_FS:00000000 STORAGE_IsReady_FS
C:\Users\kroko\AppData\Local\Temp\ccTSeZIZ.s:101    .text.STORAGE_IsWriteProtected_FS:00000000 $t
C:\Users\kroko\AppData\Local\Temp\ccTSeZIZ.s:106    .text.STORAGE_IsWriteProtected_FS:00000000 STORAGE_IsWriteProtected_FS
C:\Users\kroko\AppData\Local\Temp\ccTSeZIZ.s:125    .text.STORAGE_GetMaxLun_FS:00000000 $t
C:\Users\kroko\AppData\Local\Temp\ccTSeZIZ.s:130    .text.STORAGE_GetMaxLun_FS:00000000 STORAGE_GetMaxLun_FS
C:\Users\kroko\AppData\Local\Temp\ccTSeZIZ.s:145    .text.STORAGE_Write_FS:00000000 $t
C:\Users\kroko\AppData\Local\Temp\ccTSeZIZ.s:150    .text.STORAGE_Write_FS:00000000 STORAGE_Write_FS
C:\Users\kroko\AppData\Local\Temp\ccTSeZIZ.s:205    .text.STORAGE_Read_FS:00000000 $t
C:\Users\kroko\AppData\Local\Temp\ccTSeZIZ.s:210    .text.STORAGE_Read_FS:00000000 STORAGE_Read_FS
C:\Users\kroko\AppData\Local\Temp\ccTSeZIZ.s:242    .data.USBD_Storage_Interface_fops_FS:00000000 USBD_Storage_Interface_fops_FS
C:\Users\kroko\AppData\Local\Temp\ccTSeZIZ.s:239    .data.USBD_Storage_Interface_fops_FS:00000000 $d
C:\Users\kroko\AppData\Local\Temp\ccTSeZIZ.s:256    .rodata.STORAGE_Inquirydata_FS:00000000 STORAGE_Inquirydata_FS
C:\Users\kroko\AppData\Local\Temp\ccTSeZIZ.s:253    .rodata.STORAGE_Inquirydata_FS:00000000 $d

UNDEFINED SYMBOLS
MX25FLASH_Sector_Erase
MX25FLASH_Program_Sector
MX25FLASH_Read_Sector
